; Function Attrs: nounwind uwtable
define range(i32 1, 0) i32 @wolfSSL_UseKeyShare(ptr noundef %0, i16 noundef zeroext %1) local_unnamed_addr #0 {
  %3 = icmp eq ptr %0, null
  br i1 %3, label %7, label %4

4:                                                ; preds = %2
  %5 = getelementptr inbounds nuw i8, ptr %0, i64 1224
  %6 = tail call i32 @TLSX_KeyShare_Use(ptr noundef nonnull %0, i16 noundef zeroext %1, i16 noundef zeroext 0, ptr noundef null, ptr noundef null, ptr noundef nonnull %5) #11
  %. = tail call i32 @llvm.umax.i32(i32 %6, i32 1)
  br label %7

7:                                                ; preds = %4, %2
  %.0 = phi i32 [ -173, %2 ], [ %., %4 ]
  ret i32 %.0
}